; Function Attrs: mustprogress nofree norecurse nounwind willreturn memory(readwrite, inaccessiblemem: none) uwtable
define noundef zeroext i1 @_ZNK7openvdb5v11_06points12AttributeSet8isSharedEm(ptr nocapture noundef nonnull readonly align 8 dereferenceable(40) %this, i64 noundef %pos) local_unnamed_addr #10 align 2 {
entry:
  %mAttrs = getelementptr inbounds i8, ptr %this, i64 16
  %0 = load ptr, ptr %mAttrs, align 8
  %_M_refcount.i = getelementptr inbounds %"class.std::shared_ptr.18", ptr %0, i64 %pos, i32 0, i32 1
  %1 = load ptr, ptr %_M_refcount.i, align 8
  %tobool.not.i.i = icmp eq ptr %1, null
  br i1 %tobool.not.i.i, label %_ZNKSt12__shared_ptrIN7openvdb5v11_06points14AttributeArrayELN9__gnu_cxx12_Lock_policyE2EE9use_countEv.exit, label %cond.true.i.i

cond.true.i.i:                                    ; preds = %entry
  %_M_use_count.i.i.i = getelementptr inbounds i8, ptr %1, i64 8
  %2 = load atomic i32, ptr %_M_use_count.i.i.i monotonic, align 8
  %3 = icmp ne i32 %2, 1
  br label %_ZNKSt12__shared_ptrIN7openvdb5v11_06points14AttributeArrayELN9__gnu_cxx12_Lock_policyE2EE9use_countEv.exit

_ZNKSt12__shared_ptrIN7openvdb5v11_06points14AttributeArrayELN9__gnu_cxx12_Lock_policyE2EE9use_countEv.exit: ; preds = %entry, %cond.true.i.i
  %cond.i.i = phi i1 [ %3, %cond.true.i.i ], [ true, %entry ]
  ret i1 %cond.i.i
}